target datalayout = "e-m:e-p270:32:32-p271:32:32-p272:64:64-i64:64-i128:128-f80:128-n8:16:32:64-S128"
target triple = "x86_64-pc-linux-gnu"

%"class.zmq::shared_message_memory_allocator" = type { ptr, i64, i64, ptr, i64 }

; Function Attrs: mustprogress nounwind uwtable
define void @_ZN3zmq31shared_message_memory_allocatorC2Emm(ptr noundef nonnull align 8 dereferenceable(40) %0, i64 noundef %1, i64 noundef %2) unnamed_addr #0 align 2 {
  %4 = alloca ptr, align 8
  %5 = alloca i64, align 8
  %6 = alloca i64, align 8
  store ptr %0, ptr %4, align 8, !tbaa !3
  store i64 %1, ptr %5, align 8, !tbaa !8
  store i64 %2, ptr %6, align 8, !tbaa !8
  %7 = load ptr, ptr %4, align 8
  %8 = getelementptr inbounds nuw %"class.zmq::shared_message_memory_allocator", ptr %7, i32 0, i32 0
  store ptr null, ptr %8, align 8, !tbaa !10
  %9 = getelementptr inbounds nuw %"class.zmq::shared_message_memory_allocator", ptr %7, i32 0, i32 1
  store i64 0, ptr %9, align 8, !tbaa !14
  %10 = getelementptr inbounds nuw %"class.zmq::shared_message_memory_allocator", ptr %7, i32 0, i32 2
  %11 = load i64, ptr %5, align 8, !tbaa !8
  store i64 %11, ptr %10, align 8, !tbaa !15
  %12 = getelementptr inbounds nuw %"class.zmq::shared_message_memory_allocator", ptr %7, i32 0, i32 3
  store ptr null, ptr %12, align 8, !tbaa !16
  %13 = getelementptr inbounds nuw %"class.zmq::shared_message_memory_allocator", ptr %7, i32 0, i32 4
  %14 = load i64, ptr %6, align 8, !tbaa !8
  store i64 %14, ptr %13, align 8, !tbaa !17
  ret void
}